target datalayout = "e-m:e-p270:32:32-p271:32:32-p272:64:64-i64:64-i128:128-f80:128-n8:16:32:64-S128"
target triple = "x86_64-pc-linux-gnu"

%struct.png_color_8_struct = type { i8, i8, i8, i8, i8 }
%struct.png_color_16_struct = type { i8, i16, i16, i16, i16 }
%struct.png_colorspace = type { i32, %struct.png_xy, %struct.png_XYZ, i16, i16 }
%struct.png_xy = type { i32, i32, i32, i32, i32, i32, i32, i32 }
%struct.png_XYZ = type { i32, i32, i32, i32, i32, i32, i32, i32, i32 }
%struct.png_info_def = type { i32, i32, i32, i64, ptr, i16, i16, i8, i8, i8, i8, i8, i8, i8, i8, [8 x i8], %struct.png_colorspace, ptr, ptr, i32, i32, i32, ptr, %struct.png_time_struct, %struct.png_color_8_struct, ptr, %struct.png_color_16_struct, %struct.png_color_16_struct, i32, i32, i8, i32, i32, i8, i32, ptr, ptr, ptr, ptr, i32, i32, ptr, ptr, i8, i8, i32, ptr, i32, ptr, i32, i8, ptr, ptr, ptr }
%struct.png_time_struct = type { i16, i8, i8, i8, i8, i8 }

; Function Attrs: nounwind uwtable
define i32 @png_get_iCCP(ptr noalias noundef %0, ptr noalias noundef %1, ptr noundef %2, ptr noundef %3, ptr noundef %4, ptr noundef %5) #0 {
  %7 = alloca i32, align 4
  %8 = alloca ptr, align 8
  %9 = alloca ptr, align 8
  %10 = alloca ptr, align 8
  %11 = alloca ptr, align 8
  %12 = alloca ptr, align 8
  %13 = alloca ptr, align 8
  store ptr %0, ptr %8, align 8
  store ptr %1, ptr %9, align 8
  store ptr %2, ptr %10, align 8
  store ptr %3, ptr %11, align 8
  store ptr %4, ptr %12, align 8
  store ptr %5, ptr %13, align 8
  %14 = load ptr, ptr %8, align 8
  %15 = icmp ne ptr %14, null
  br i1 %15, label %16, label %78

16:                                               ; preds = %6
  %17 = load ptr, ptr %9, align 8
  %18 = icmp ne ptr %17, null
  br i1 %18, label %19, label %78

19:                                               ; preds = %16
  %20 = load ptr, ptr %9, align 8
  %21 = getelementptr inbounds %struct.png_info_def, ptr %20, i32 0, i32 2
  %22 = load i32, ptr %21, align 8
  %23 = and i32 %22, 4096
  %24 = icmp ne i32 %23, 0
  br i1 %24, label %25, label %78

25:                                               ; preds = %19
  %26 = load ptr, ptr %10, align 8
  %27 = icmp ne ptr %26, null
  br i1 %27, label %28, label %78

28:                                               ; preds = %25
  %29 = load ptr, ptr %12, align 8
  %30 = icmp ne ptr %29, null
  br i1 %30, label %31, label %78

31:                                               ; preds = %28
  %32 = load ptr, ptr %13, align 8
  %33 = icmp ne ptr %32, null
  br i1 %33, label %34, label %78

34:                                               ; preds = %31
  %35 = load ptr, ptr %9, align 8
  %36 = getelementptr inbounds %struct.png_info_def, ptr %35, i32 0, i32 17
  %37 = load ptr, ptr %36, align 8
  %38 = load ptr, ptr %10, align 8
  store ptr %37, ptr %38, align 8
  %39 = load ptr, ptr %9, align 8
  %40 = getelementptr inbounds %struct.png_info_def, ptr %39, i32 0, i32 18
  %41 = load ptr, ptr %40, align 8
  %42 = load ptr, ptr %12, align 8
  store ptr %41, ptr %42, align 8
  %43 = load ptr, ptr %9, align 8
  %44 = getelementptr inbounds %struct.png_info_def, ptr %43, i32 0, i32 18
  %45 = load ptr, ptr %44, align 8
  %46 = load i8, ptr %45, align 1
  %47 = zext i8 %46 to i32
  %48 = shl i32 %47, 24
  %49 = load ptr, ptr %9, align 8
  %50 = getelementptr inbounds %struct.png_info_def, ptr %49, i32 0, i32 18
  %51 = load ptr, ptr %50, align 8
  %52 = getelementptr inbounds i8, ptr %51, i64 1
  %53 = load i8, ptr %52, align 1
  %54 = zext i8 %53 to i32
  %55 = shl i32 %54, 16
  %56 = add i32 %48, %55
  %57 = load ptr, ptr %9, align 8
  %58 = getelementptr inbounds %struct.png_info_def, ptr %57, i32 0, i32 18
  %59 = load ptr, ptr %58, align 8
  %60 = getelementptr inbounds i8, ptr %59, i64 2
  %61 = load i8, ptr %60, align 1
  %62 = zext i8 %61 to i32
  %63 = shl i32 %62, 8
  %64 = add i32 %56, %63
  %65 = load ptr, ptr %9, align 8
  %66 = getelementptr inbounds %struct.png_info_def, ptr %65, i32 0, i32 18
  %67 = load ptr, ptr %66, align 8
  %68 = getelementptr inbounds i8, ptr %67, i64 3
  %69 = load i8, ptr %68, align 1
  %70 = zext i8 %69 to i32
  %71 = add i32 %64, %70
  %72 = load ptr, ptr %13, align 8
  store i32 %71, ptr %72, align 4
  %73 = load ptr, ptr %11, align 8
  %74 = icmp ne ptr %73, null
  br i1 %74, label %75, label %77

75:                                               ; preds = %34
  %76 = load ptr, ptr %11, align 8
  store i32 0, ptr %76, align 4
  br label %77

77:                                               ; preds = %75, %34
  store i32 4096, ptr %7, align 4
  br label %79

78:                                               ; preds = %31, %28, %25, %19, %16, %6
  store i32 0, ptr %7, align 4
  br label %79

79:                                               ; preds = %78, %77
  %80 = load i32, ptr %7, align 4
  ret i32 %80
}