; Function Attrs: mustprogress nofree norecurse nosync nounwind willreturn memory(read, argmem: readwrite, inaccessiblemem: none) uwtable
define range(i32 0, 4097) i32 @png_get_iCCP(ptr noalias noundef readnone %0, ptr noalias noundef readonly %1, ptr noundef writeonly %2, ptr noundef writeonly %3, ptr noundef writeonly %4, ptr noundef writeonly %5) local_unnamed_addr #6 {
  %7 = icmp ne ptr %0, null
  %8 = icmp ne ptr %1, null
  %or.cond = and i1 %7, %8
  br i1 %or.cond, label %9, label %40

9:                                                ; preds = %6
  %10 = getelementptr inbounds i8, ptr %1, i64 8
  %11 = load i32, ptr %10, align 8
  %12 = and i32 %11, 4096
  %13 = icmp ne i32 %12, 0
  %14 = icmp ne ptr %2, null
  %or.cond3 = and i1 %14, %13
  %15 = icmp ne ptr %4, null
  %or.cond5 = and i1 %15, %or.cond3
  %16 = icmp ne ptr %5, null
  %or.cond7 = and i1 %16, %or.cond5
  br i1 %or.cond7, label %17, label %40

17:                                               ; preds = %9
  %18 = getelementptr inbounds i8, ptr %1, i64 128
  %19 = load ptr, ptr %18, align 8
  store ptr %19, ptr %2, align 8
  %20 = getelementptr inbounds i8, ptr %1, i64 136
  %21 = load ptr, ptr %20, align 8
  store ptr %21, ptr %4, align 8
  %22 = load i8, ptr %21, align 1
  %23 = zext i8 %22 to i32
  %24 = shl nuw i32 %23, 24
  %25 = getelementptr inbounds i8, ptr %21, i64 1
  %26 = load i8, ptr %25, align 1
  %27 = zext i8 %26 to i32
  %28 = shl nuw nsw i32 %27, 16
  %29 = or disjoint i32 %28, %24
  %30 = getelementptr inbounds i8, ptr %21, i64 2
  %31 = load i8, ptr %30, align 1
  %32 = zext i8 %31 to i32
  %33 = shl nuw nsw i32 %32, 8
  %34 = or disjoint i32 %29, %33
  %35 = getelementptr inbounds i8, ptr %21, i64 3
  %36 = load i8, ptr %35, align 1
  %37 = zext i8 %36 to i32
  %38 = or disjoint i32 %34, %37
  store i32 %38, ptr %5, align 4
  %.not = icmp eq ptr %3, null
  br i1 %.not, label %40, label %39

39:                                               ; preds = %17
  store i32 0, ptr %3, align 4
  br label %40

40:                                               ; preds = %6, %9, %17, %39
  %.0 = phi i32 [ 4096, %39 ], [ 4096, %17 ], [ 0, %9 ], [ 0, %6 ]
  ret i32 %.0
}